; Function Attrs: mustprogress nofree norecurse nosync nounwind willreturn memory(argmem: write) uwtable
define void @_ZN29grpc_local_server_credentialsC2E23grpc_local_connect_type(ptr nocapture noundef nonnull writeonly align 8 dereferenceable(48) %this, i32 noundef %connect_type) unnamed_addr #4 align 2 personality ptr @__gxx_personality_v0 {
entry:
  %refs_.i.i = getelementptr inbounds i8, ptr %this, i64 8
  store i64 1, ptr %refs_.i.i, align 8
  %processor_.i = getelementptr inbounds i8, ptr %this, i64 16
  tail call void @llvm.memset.p0.i64(ptr noundef nonnull align 8 dereferenceable(24) %processor_.i, i8 0, i64 24, i1 false)
  store ptr getelementptr inbounds ({ [6 x ptr] }, ptr @_ZTV29grpc_local_server_credentials, i64 0, i32 0, i64 2), ptr %this, align 8
  %connect_type_ = getelementptr inbounds i8, ptr %this, i64 40
  store i32 %connect_type, ptr %connect_type_, align 8
  ret void
}